; Function Attrs: nounwind uwtable
define noundef ptr @yy_scan_buffer(ptr noundef %0, i64 noundef %1, ptr nocapture noundef %2) local_unnamed_addr #0 {
  %4 = icmp ult i64 %1, 2
  br i1 %4, label %yy_switch_to_buffer.exit, label %5

5:                                                ; preds = %3
  %6 = add i64 %1, -2
  %7 = getelementptr inbounds i8, ptr %0, i64 %6
  %8 = load i8, ptr %7, align 1
  %.not = icmp eq i8 %8, 0
  br i1 %.not, label %9, label %yy_switch_to_buffer.exit

9:                                                ; preds = %5
  %10 = getelementptr i8, ptr %0, i64 %1
  %11 = getelementptr i8, ptr %10, i64 -1
  %12 = load i8, ptr %11, align 1
  %.not25 = icmp eq i8 %12, 0
  br i1 %.not25, label %13, label %yy_switch_to_buffer.exit

13:                                               ; preds = %9
  %14 = tail call noalias noundef dereferenceable_or_null(64) ptr @malloc(i64 noundef 64) #34
  %.not26 = icmp eq ptr %14, null
  br i1 %.not26, label %15, label %.thread.i

15:                                               ; preds = %13
  %16 = load ptr, ptr %2, align 8
  %17 = getelementptr inbounds i8, ptr %16, i64 16
  %18 = load i32, ptr %17, align 8
  tail call void @yara_yyerror(ptr noundef nonnull %2, ptr noundef %16, ptr noundef nonnull @.str.19)
  store i32 %18, ptr %17, align 8
  %19 = getelementptr inbounds i8, ptr %16, i64 24
  tail call void @longjmp(ptr noundef nonnull %19, i32 noundef 1) #31
  unreachable

.thread.i:                                        ; preds = %13
  %20 = trunc i64 %6 to i32
  %21 = getelementptr inbounds i8, ptr %14, i64 24
  store i32 %20, ptr %21, align 8
  %22 = getelementptr inbounds i8, ptr %14, i64 8
  store ptr %0, ptr %22, align 8
  %23 = getelementptr inbounds i8, ptr %14, i64 16
  store ptr %0, ptr %23, align 8
  %24 = getelementptr inbounds i8, ptr %14, i64 32
  store i32 0, ptr %24, align 8
  store ptr null, ptr %14, align 8
  %25 = getelementptr inbounds i8, ptr %14, i64 28
  store i32 %20, ptr %25, align 4
  %26 = getelementptr inbounds i8, ptr %14, i64 36
  store i32 0, ptr %26, align 4
  %27 = getelementptr inbounds i8, ptr %14, i64 40
  store i32 1, ptr %27, align 8
  %28 = getelementptr inbounds i8, ptr %14, i64 52
  store i32 0, ptr %28, align 4
  %29 = getelementptr inbounds i8, ptr %14, i64 56
  store i32 0, ptr %29, align 8
  tail call fastcc void @yyensure_buffer_stack(ptr noundef %2)
  %30 = getelementptr inbounds i8, ptr %2, i64 40
  %31 = load ptr, ptr %30, align 8, !nonnull !5, !noundef !5
  %32 = getelementptr inbounds i8, ptr %2, i64 24
  %33 = load i64, ptr %32, align 8
  %34 = getelementptr inbounds ptr, ptr %31, i64 %33
  %35 = load ptr, ptr %34, align 8
  %36 = icmp eq ptr %35, %14
  br i1 %36, label %yy_switch_to_buffer.exit, label %37

37:                                               ; preds = %.thread.i
  %.not25.i = icmp eq ptr %35, null
  br i1 %.not25.i, label %56, label %38

38:                                               ; preds = %37
  %39 = getelementptr inbounds i8, ptr %2, i64 48
  %40 = load i8, ptr %39, align 8
  %41 = getelementptr inbounds i8, ptr %2, i64 64
  %42 = load ptr, ptr %41, align 8
  store i8 %40, ptr %42, align 1
  %43 = load ptr, ptr %41, align 8
  %44 = load ptr, ptr %30, align 8
  %45 = load i64, ptr %32, align 8
  %46 = getelementptr inbounds ptr, ptr %44, i64 %45
  %47 = load ptr, ptr %46, align 8
  %48 = getelementptr inbounds i8, ptr %47, i64 16
  store ptr %43, ptr %48, align 8
  %49 = getelementptr inbounds i8, ptr %2, i64 52
  %50 = load i32, ptr %49, align 4
  %51 = load ptr, ptr %30, align 8
  %52 = load i64, ptr %32, align 8
  %53 = getelementptr inbounds ptr, ptr %51, i64 %52
  %54 = load ptr, ptr %53, align 8
  %55 = getelementptr inbounds i8, ptr %54, i64 28
  store i32 %50, ptr %55, align 4
  %.pre.i = load ptr, ptr %30, align 8
  %.pre = load i64, ptr %32, align 8
  br label %56

56:                                               ; preds = %38, %37
  %57 = phi i64 [ %.pre, %38 ], [ %33, %37 ]
  %58 = phi ptr [ %.pre.i, %38 ], [ %31, %37 ]
  %59 = getelementptr inbounds ptr, ptr %58, i64 %57
  store ptr %14, ptr %59, align 8
  %60 = load ptr, ptr %30, align 8
  %61 = load i64, ptr %32, align 8
  %62 = getelementptr inbounds ptr, ptr %60, i64 %61
  %63 = load ptr, ptr %62, align 8
  %64 = getelementptr inbounds i8, ptr %63, i64 28
  %65 = load i32, ptr %64, align 4
  %66 = getelementptr inbounds i8, ptr %2, i64 52
  store i32 %65, ptr %66, align 4
  %67 = load ptr, ptr %62, align 8
  %68 = getelementptr inbounds i8, ptr %67, i64 16
  %69 = load ptr, ptr %68, align 8
  %70 = getelementptr inbounds i8, ptr %2, i64 64
  store ptr %69, ptr %70, align 8
  %71 = getelementptr inbounds i8, ptr %2, i64 128
  store ptr %69, ptr %71, align 8
  %72 = load ptr, ptr %62, align 8
  %73 = load ptr, ptr %72, align 8
  %74 = getelementptr inbounds i8, ptr %2, i64 8
  store ptr %73, ptr %74, align 8
  %75 = load i8, ptr %69, align 1
  %76 = getelementptr inbounds i8, ptr %2, i64 48
  store i8 %75, ptr %76, align 8
  %77 = getelementptr inbounds i8, ptr %2, i64 80
  store i32 1, ptr %77, align 8
  br label %yy_switch_to_buffer.exit

yy_switch_to_buffer.exit:                         ; preds = %56, %.thread.i, %3, %5, %9
  %.0 = phi ptr [ null, %9 ], [ null, %5 ], [ null, %3 ], [ %14, %.thread.i ], [ %14, %56 ]
  ret ptr %.0
}